; ModuleID = '23/805.c'
source_filename = "23/805.c"
target datalayout = "e-m:e-p270:32:32-p271:32:32-p272:64:64-i64:64-f80:128-n8:16:32:64-S128"
target triple = "x86_64-pc-linux-gnu"

@.str = private unnamed_addr constant [3 x i8] c"%c\00", align 1
@.str.1 = private unnamed_addr constant [2 x i8] c" \00", align 1

; Function Attrs: noinline nounwind uwtable
define dso_local void @main() #0 {
  %1 = alloca i8, align 1
  %2 = alloca [100 x i8], align 16
  %3 = alloca i32, align 4
  %4 = alloca i32, align 4
  %5 = alloca i32, align 4
  %6 = alloca i32, align 4
  %7 = alloca i32, align 4
  %8 = getelementptr inbounds [100 x i8], [100 x i8]* %2, i64 0, i64 0
  %9 = call i32 (i8*, ...) bitcast (i32 (...)* @gets to i32 (i8*, ...)*)(i8* %8)
  %10 = getelementptr inbounds [100 x i8], [100 x i8]* %2, i64 0, i64 0
  %11 = call i64 @strlen(i8* %10) #3
  %12 = trunc i64 %11 to i32
  store i32 %12, i32* %7, align 4
  %13 = load i32, i32* %7, align 4
  %14 = sub nsw i32 %13, 1
  store i32 %14, i32* %4, align 4
  %15 = load i32, i32* %7, align 4
  %16 = sub nsw i32 %15, 1
  store i32 %16, i32* %3, align 4
  br label %17

17:                                               ; preds = %85, %0
  %18 = load i32, i32* %3, align 4
  %19 = icmp sge i32 %18, 0
  br i1 %19, label %20, label %88

20:                                               ; preds = %17
  %21 = load i32, i32* %3, align 4
  %22 = sext i32 %21 to i64
  %23 = getelementptr inbounds [100 x i8], [100 x i8]* %2, i64 0, i64 %22
  %24 = load i8, i8* %23, align 1
  %25 = sext i8 %24 to i32
  %26 = icmp eq i32 %25, 32
  br i1 %26, label %27, label %55

27:                                               ; preds = %20
  %28 = load i32, i32* %3, align 4
  store i32 %28, i32* %6, align 4
  %29 = load i32, i32* %6, align 4
  %30 = add nsw i32 %29, 1
  store i32 %30, i32* %5, align 4
  br label %31

31:                                               ; preds = %42, %27
  %32 = load i32, i32* %5, align 4
  %33 = load i32, i32* %4, align 4
  %34 = icmp sle i32 %32, %33
  br i1 %34, label %35, label %45

35:                                               ; preds = %31
  %36 = load i32, i32* %5, align 4
  %37 = sext i32 %36 to i64
  %38 = getelementptr inbounds [100 x i8], [100 x i8]* %2, i64 0, i64 %37
  %39 = load i8, i8* %38, align 1
  %40 = sext i8 %39 to i32
  %41 = call i32 (i8*, ...) @printf(i8* getelementptr inbounds ([3 x i8], [3 x i8]* @.str, i64 0, i64 0), i32 %40)
  br label %42

42:                                               ; preds = %35
  %43 = load i32, i32* %5, align 4
  %44 = add nsw i32 %43, 1
  store i32 %44, i32* %5, align 4
  br label %31

45:                                               ; preds = %31
  %46 = load i32, i32* %5, align 4
  %47 = load i32, i32* %4, align 4
  %48 = add nsw i32 %47, 1
  %49 = icmp eq i32 %46, %48
  br i1 %49, label %50, label %52

50:                                               ; preds = %45
  %51 = call i32 (i8*, ...) @printf(i8* getelementptr inbounds ([2 x i8], [2 x i8]* @.str.1, i64 0, i64 0))
  br label %52

52:                                               ; preds = %50, %45
  %53 = load i32, i32* %6, align 4
  %54 = sub nsw i32 %53, 1
  store i32 %54, i32* %4, align 4
  br label %55

55:                                               ; preds = %52, %20
  %56 = load i32, i32* %3, align 4
  %57 = icmp eq i32 %56, 0
  br i1 %57, label %58, label %84

58:                                               ; preds = %55
  store i32 0, i32* %5, align 4
  br label %59

59:                                               ; preds = %80, %58
  %60 = load i32, i32* %5, align 4
  %61 = load i32, i32* %7, align 4
  %62 = sub nsw i32 %61, 1
  %63 = icmp sle i32 %60, %62
  br i1 %63, label %64, label %71

64:                                               ; preds = %59
  %65 = load i32, i32* %5, align 4
  %66 = sext i32 %65 to i64
  %67 = getelementptr inbounds [100 x i8], [100 x i8]* %2, i64 0, i64 %66
  %68 = load i8, i8* %67, align 1
  %69 = sext i8 %68 to i32
  %70 = icmp ne i32 %69, 32
  br label %71

71:                                               ; preds = %64, %59
  %72 = phi i1 [ false, %59 ], [ %70, %64 ]
  br i1 %72, label %73, label %83

73:                                               ; preds = %71
  %74 = load i32, i32* %5, align 4
  %75 = sext i32 %74 to i64
  %76 = getelementptr inbounds [100 x i8], [100 x i8]* %2, i64 0, i64 %75
  %77 = load i8, i8* %76, align 1
  %78 = sext i8 %77 to i32
  %79 = call i32 (i8*, ...) @printf(i8* getelementptr inbounds ([3 x i8], [3 x i8]* @.str, i64 0, i64 0), i32 %78)
  br label %80

80:                                               ; preds = %73
  %81 = load i32, i32* %5, align 4
  %82 = add nsw i32 %81, 1
  store i32 %82, i32* %5, align 4
  br label %59

83:                                               ; preds = %71
  br label %84

84:                                               ; preds = %83, %55
  br label %85

85:                                               ; preds = %84
  %86 = load i32, i32* %3, align 4
  %87 = add nsw i32 %86, -1
  store i32 %87, i32* %3, align 4
  br label %17

88:                                               ; preds = %17
  ret void
}

declare dso_local i32 @gets(...) #1

; Function Attrs: nounwind readonly
declare dso_local i64 @strlen(i8*) #2

declare dso_local i32 @printf(i8*, ...) #1


!llvm.module.flags = !{!0}
!llvm.ident = !{!1}

!0 = !{i32 1, !"wchar_size", i32 4}
!1 = !{!"clang version 10.0.0-4ubuntu1 "}
